; ModuleID = '1513.c'
source_filename = "1513.c"
target datalayout = "e-m:e-p270:32:32-p271:32:32-p272:64:64-i64:64-f80:128-n8:16:32:64-S128"
target triple = "x86_64-pc-linux-gnu"

@.str = private unnamed_addr constant [3 x i8] c"%c\00", align 1
@.str.1 = private unnamed_addr constant [2 x i8] c"\0A\00", align 1

; Function Attrs: noinline nounwind uwtable
define dso_local i32 @main() #0 {
  %1 = alloca i32, align 4
  %2 = alloca [100 x i8], align 16
  %3 = alloca [100 x i8], align 16
  %4 = alloca [100 x i8], align 16
  %5 = alloca [100 x i8], align 16
  %6 = alloca i32, align 4
  %7 = alloca i32, align 4
  %8 = alloca i32, align 4
  %9 = alloca i32, align 4
  %10 = alloca i32, align 4
  %11 = alloca i32, align 4
  store i32 0, i32* %1, align 4
  store i32 0, i32* %6, align 4
  store i32 100, i32* %7, align 4
  %12 = getelementptr inbounds [100 x i8], [100 x i8]* %4, i64 0, i64 0
  %13 = call i32 (i8*, ...) bitcast (i32 (...)* @gets to i32 (i8*, ...)*)(i8* %12)
  %14 = getelementptr inbounds [100 x i8], [100 x i8]* %4, i64 0, i64 0
  %15 = call i64 @strlen(i8* %14) #4
  %16 = trunc i64 %15 to i32
  store i32 %16, i32* %11, align 4
  store i32 0, i32* %8, align 4
  store i32 0, i32* %9, align 4
  br label %17

17:                                               ; preds = %73, %0
  %18 = load i32, i32* %9, align 4
  %19 = load i32, i32* %11, align 4
  %20 = icmp sle i32 %18, %19
  br i1 %20, label %21, label %76

21:                                               ; preds = %17
  %22 = load i32, i32* %9, align 4
  %23 = sext i32 %22 to i64
  %24 = getelementptr inbounds [100 x i8], [100 x i8]* %4, i64 0, i64 %23
  %25 = load i8, i8* %24, align 1
  %26 = sext i8 %25 to i32
  %27 = icmp eq i32 %26, 32
  br i1 %27, label %39, label %28

28:                                               ; preds = %21
  %29 = load i32, i32* %9, align 4
  %30 = sext i32 %29 to i64
  %31 = getelementptr inbounds [100 x i8], [100 x i8]* %4, i64 0, i64 %30
  %32 = load i8, i8* %31, align 1
  %33 = sext i8 %32 to i32
  %34 = icmp eq i32 %33, 44
  br i1 %34, label %39, label %35

35:                                               ; preds = %28
  %36 = load i32, i32* %9, align 4
  %37 = load i32, i32* %11, align 4
  %38 = icmp eq i32 %36, %37
  br i1 %38, label %39, label %61

39:                                               ; preds = %35, %28, %21
  %40 = load i32, i32* %8, align 4
  %41 = load i32, i32* %7, align 4
  %42 = icmp slt i32 %40, %41
  br i1 %42, label %43, label %51

43:                                               ; preds = %39
  %44 = load i32, i32* %8, align 4
  %45 = icmp sgt i32 %44, 0
  br i1 %45, label %46, label %51

46:                                               ; preds = %43
  %47 = getelementptr inbounds [100 x i8], [100 x i8]* %2, i64 0, i64 0
  %48 = getelementptr inbounds [100 x i8], [100 x i8]* %5, i64 0, i64 0
  %49 = call i8* @strcpy(i8* %47, i8* %48) #5
  %50 = load i32, i32* %8, align 4
  store i32 %50, i32* %7, align 4
  br label %51

51:                                               ; preds = %46, %43, %39
  %52 = load i32, i32* %8, align 4
  %53 = load i32, i32* %6, align 4
  %54 = icmp sgt i32 %52, %53
  br i1 %54, label %55, label %60

55:                                               ; preds = %51
  %56 = getelementptr inbounds [100 x i8], [100 x i8]* %3, i64 0, i64 0
  %57 = getelementptr inbounds [100 x i8], [100 x i8]* %5, i64 0, i64 0
  %58 = call i8* @strcpy(i8* %56, i8* %57) #5
  %59 = load i32, i32* %8, align 4
  store i32 %59, i32* %6, align 4
  br label %60

60:                                               ; preds = %55, %51
  store i32 0, i32* %8, align 4
  br label %72

61:                                               ; preds = %35
  %62 = load i32, i32* %8, align 4
  %63 = add nsw i32 %62, 1
  store i32 %63, i32* %8, align 4
  %64 = load i32, i32* %9, align 4
  %65 = sext i32 %64 to i64
  %66 = getelementptr inbounds [100 x i8], [100 x i8]* %4, i64 0, i64 %65
  %67 = load i8, i8* %66, align 1
  %68 = load i32, i32* %8, align 4
  %69 = sub nsw i32 %68, 1
  %70 = sext i32 %69 to i64
  %71 = getelementptr inbounds [100 x i8], [100 x i8]* %5, i64 0, i64 %70
  store i8 %67, i8* %71, align 1
  br label %72

72:                                               ; preds = %61, %60
  br label %73

73:                                               ; preds = %72
  %74 = load i32, i32* %9, align 4
  %75 = add nsw i32 %74, 1
  store i32 %75, i32* %9, align 4
  br label %17

76:                                               ; preds = %17
  store i32 0, i32* %10, align 4
  br label %77

77:                                               ; preds = %88, %76
  %78 = load i32, i32* %10, align 4
  %79 = load i32, i32* %6, align 4
  %80 = icmp slt i32 %78, %79
  br i1 %80, label %81, label %91

81:                                               ; preds = %77
  %82 = load i32, i32* %10, align 4
  %83 = sext i32 %82 to i64
  %84 = getelementptr inbounds [100 x i8], [100 x i8]* %3, i64 0, i64 %83
  %85 = load i8, i8* %84, align 1
  %86 = sext i8 %85 to i32
  %87 = call i32 (i8*, ...) @printf(i8* getelementptr inbounds ([3 x i8], [3 x i8]* @.str, i64 0, i64 0), i32 %86)
  br label %88

88:                                               ; preds = %81
  %89 = load i32, i32* %10, align 4
  %90 = add nsw i32 %89, 1
  store i32 %90, i32* %10, align 4
  br label %77

91:                                               ; preds = %77
  %92 = call i32 (i8*, ...) @printf(i8* getelementptr inbounds ([2 x i8], [2 x i8]* @.str.1, i64 0, i64 0))
  store i32 0, i32* %10, align 4
  br label %93

93:                                               ; preds = %104, %91
  %94 = load i32, i32* %10, align 4
  %95 = load i32, i32* %7, align 4
  %96 = icmp slt i32 %94, %95
  br i1 %96, label %97, label %107

97:                                               ; preds = %93
  %98 = load i32, i32* %10, align 4
  %99 = sext i32 %98 to i64
  %100 = getelementptr inbounds [100 x i8], [100 x i8]* %2, i64 0, i64 %99
  %101 = load i8, i8* %100, align 1
  %102 = sext i8 %101 to i32
  %103 = call i32 (i8*, ...) @printf(i8* getelementptr inbounds ([3 x i8], [3 x i8]* @.str, i64 0, i64 0), i32 %102)
  br label %104

104:                                              ; preds = %97
  %105 = load i32, i32* %10, align 4
  %106 = add nsw i32 %105, 1
  store i32 %106, i32* %10, align 4
  br label %93

107:                                              ; preds = %93
  ret i32 0
}

declare dso_local i32 @gets(...) #1

; Function Attrs: nounwind readonly
declare dso_local i64 @strlen(i8*) #2

; Function Attrs: nounwind
declare dso_local i8* @strcpy(i8*, i8*) #3

declare dso_local i32 @printf(i8*, ...) #1


!llvm.module.flags = !{!0}
!llvm.ident = !{!1}

!0 = !{i32 1, !"wchar_size", i32 4}
!1 = !{!"clang version 10.0.0-4ubuntu1 "}
